; ModuleID = '46/3182.c'
source_filename = "46/3182.c"
target datalayout = "e-m:e-p270:32:32-p271:32:32-p272:64:64-i64:64-f80:128-n8:16:32:64-S128"
target triple = "x86_64-pc-linux-gnu"

@.str = private unnamed_addr constant [6 x i8] c"%d %d\00", align 1
@.str.1 = private unnamed_addr constant [3 x i8] c"%d\00", align 1
@.str.2 = private unnamed_addr constant [4 x i8] c"%d\0A\00", align 1

; Function Attrs: noinline nounwind uwtable
define dso_local i32 @main() #0 {
  %1 = alloca i32, align 4
  %2 = alloca i32, align 4
  %3 = alloca i32, align 4
  %4 = alloca i32, align 4
  %5 = alloca i32, align 4
  %6 = alloca i32, align 4
  %7 = alloca i32, align 4
  %8 = alloca i32, align 4
  %9 = alloca [100 x [100 x i32]], align 16
  store i32 0, i32* %1, align 4
  %10 = call i32 (i8*, ...) @__isoc99_scanf(i8* getelementptr inbounds ([6 x i8], [6 x i8]* @.str, i64 0, i64 0), i32* %4, i32* %5)
  store i32 0, i32* %2, align 4
  br label %11

11:                                               ; preds = %32, %0
  %12 = load i32, i32* %2, align 4
  %13 = load i32, i32* %4, align 4
  %14 = icmp slt i32 %12, %13
  br i1 %14, label %15, label %35

15:                                               ; preds = %11
  store i32 0, i32* %3, align 4
  br label %16

16:                                               ; preds = %28, %15
  %17 = load i32, i32* %3, align 4
  %18 = load i32, i32* %5, align 4
  %19 = icmp slt i32 %17, %18
  br i1 %19, label %20, label %31

20:                                               ; preds = %16
  %21 = load i32, i32* %2, align 4
  %22 = sext i32 %21 to i64
  %23 = getelementptr inbounds [100 x [100 x i32]], [100 x [100 x i32]]* %9, i64 0, i64 %22
  %24 = load i32, i32* %3, align 4
  %25 = sext i32 %24 to i64
  %26 = getelementptr inbounds [100 x i32], [100 x i32]* %23, i64 0, i64 %25
  %27 = call i32 (i8*, ...) @__isoc99_scanf(i8* getelementptr inbounds ([3 x i8], [3 x i8]* @.str.1, i64 0, i64 0), i32* %26)
  br label %28

28:                                               ; preds = %20
  %29 = load i32, i32* %3, align 4
  %30 = add nsw i32 %29, 1
  store i32 %30, i32* %3, align 4
  br label %16

31:                                               ; preds = %16
  br label %32

32:                                               ; preds = %31
  %33 = load i32, i32* %2, align 4
  %34 = add nsw i32 %33, 1
  store i32 %34, i32* %2, align 4
  br label %11

35:                                               ; preds = %11
  store i32 0, i32* %2, align 4
  br label %36

36:                                               ; preds = %158, %35
  %37 = load i32, i32* %2, align 4
  %38 = load i32, i32* %4, align 4
  %39 = add nsw i32 %38, 1
  %40 = sdiv i32 %39, 2
  %41 = icmp slt i32 %37, %40
  br i1 %41, label %42, label %161

42:                                               ; preds = %36
  %43 = load i32, i32* %2, align 4
  store i32 %43, i32* %3, align 4
  br label %44

44:                                               ; preds = %59, %42
  %45 = load i32, i32* %3, align 4
  %46 = load i32, i32* %5, align 4
  %47 = load i32, i32* %2, align 4
  %48 = sub nsw i32 %46, %47
  %49 = icmp slt i32 %45, %48
  br i1 %49, label %50, label %62

50:                                               ; preds = %44
  %51 = load i32, i32* %2, align 4
  %52 = sext i32 %51 to i64
  %53 = getelementptr inbounds [100 x [100 x i32]], [100 x [100 x i32]]* %9, i64 0, i64 %52
  %54 = load i32, i32* %3, align 4
  %55 = sext i32 %54 to i64
  %56 = getelementptr inbounds [100 x i32], [100 x i32]* %53, i64 0, i64 %55
  %57 = load i32, i32* %56, align 4
  %58 = call i32 (i8*, ...) @printf(i8* getelementptr inbounds ([4 x i8], [4 x i8]* @.str.2, i64 0, i64 0), i32 %57)
  br label %59

59:                                               ; preds = %50
  %60 = load i32, i32* %3, align 4
  %61 = add nsw i32 %60, 1
  store i32 %61, i32* %3, align 4
  br label %44

62:                                               ; preds = %44
  %63 = load i32, i32* %2, align 4
  %64 = add nsw i32 %63, 1
  store i32 %64, i32* %6, align 4
  br label %65

65:                                               ; preds = %91, %62
  %66 = load i32, i32* %6, align 4
  %67 = load i32, i32* %4, align 4
  %68 = load i32, i32* %2, align 4
  %69 = sub nsw i32 %67, %68
  %70 = icmp slt i32 %66, %69
  br i1 %70, label %71, label %77

71:                                               ; preds = %65
  %72 = load i32, i32* %2, align 4
  %73 = load i32, i32* %5, align 4
  %74 = load i32, i32* %2, align 4
  %75 = sub nsw i32 %73, %74
  %76 = icmp slt i32 %72, %75
  br label %77

77:                                               ; preds = %71, %65
  %78 = phi i1 [ false, %65 ], [ %76, %71 ]
  br i1 %78, label %79, label %94

79:                                               ; preds = %77
  %80 = load i32, i32* %6, align 4
  %81 = sext i32 %80 to i64
  %82 = getelementptr inbounds [100 x [100 x i32]], [100 x [100 x i32]]* %9, i64 0, i64 %81
  %83 = load i32, i32* %5, align 4
  %84 = sub nsw i32 %83, 1
  %85 = load i32, i32* %2, align 4
  %86 = sub nsw i32 %84, %85
  %87 = sext i32 %86 to i64
  %88 = getelementptr inbounds [100 x i32], [100 x i32]* %82, i64 0, i64 %87
  %89 = load i32, i32* %88, align 4
  %90 = call i32 (i8*, ...) @printf(i8* getelementptr inbounds ([4 x i8], [4 x i8]* @.str.2, i64 0, i64 0), i32 %89)
  br label %91

91:                                               ; preds = %79
  %92 = load i32, i32* %6, align 4
  %93 = add nsw i32 %92, 1
  store i32 %93, i32* %6, align 4
  br label %65

94:                                               ; preds = %77
  %95 = load i32, i32* %5, align 4
  %96 = load i32, i32* %2, align 4
  %97 = sub nsw i32 %95, %96
  %98 = sub nsw i32 %97, 2
  store i32 %98, i32* %8, align 4
  br label %99

99:                                               ; preds = %124, %94
  %100 = load i32, i32* %8, align 4
  %101 = load i32, i32* %2, align 4
  %102 = icmp sge i32 %100, %101
  br i1 %102, label %103, label %110

103:                                              ; preds = %99
  %104 = load i32, i32* %2, align 4
  %105 = add nsw i32 %104, 1
  %106 = load i32, i32* %4, align 4
  %107 = load i32, i32* %2, align 4
  %108 = sub nsw i32 %106, %107
  %109 = icmp slt i32 %105, %108
  br label %110

110:                                              ; preds = %103, %99
  %111 = phi i1 [ false, %99 ], [ %109, %103 ]
  br i1 %111, label %112, label %127

112:                                              ; preds = %110
  %113 = load i32, i32* %4, align 4
  %114 = load i32, i32* %2, align 4
  %115 = sub nsw i32 %113, %114
  %116 = sub nsw i32 %115, 1
  %117 = sext i32 %116 to i64
  %118 = getelementptr inbounds [100 x [100 x i32]], [100 x [100 x i32]]* %9, i64 0, i64 %117
  %119 = load i32, i32* %8, align 4
  %120 = sext i32 %119 to i64
  %121 = getelementptr inbounds [100 x i32], [100 x i32]* %118, i64 0, i64 %120
  %122 = load i32, i32* %121, align 4
  %123 = call i32 (i8*, ...) @printf(i8* getelementptr inbounds ([4 x i8], [4 x i8]* @.str.2, i64 0, i64 0), i32 %122)
  br label %124

124:                                              ; preds = %112
  %125 = load i32, i32* %8, align 4
  %126 = add nsw i32 %125, -1
  store i32 %126, i32* %8, align 4
  br label %99

127:                                              ; preds = %110
  %128 = load i32, i32* %4, align 4
  %129 = load i32, i32* %2, align 4
  %130 = sub nsw i32 %128, %129
  %131 = sub nsw i32 %130, 2
  store i32 %131, i32* %7, align 4
  br label %132

132:                                              ; preds = %154, %127
  %133 = load i32, i32* %7, align 4
  %134 = load i32, i32* %2, align 4
  %135 = icmp sgt i32 %133, %134
  br i1 %135, label %136, label %143

136:                                              ; preds = %132
  %137 = load i32, i32* %5, align 4
  %138 = load i32, i32* %2, align 4
  %139 = sub nsw i32 %137, %138
  %140 = sub nsw i32 %139, 2
  %141 = load i32, i32* %2, align 4
  %142 = icmp sge i32 %140, %141
  br label %143

143:                                              ; preds = %136, %132
  %144 = phi i1 [ false, %132 ], [ %142, %136 ]
  br i1 %144, label %145, label %157

145:                                              ; preds = %143
  %146 = load i32, i32* %7, align 4
  %147 = sext i32 %146 to i64
  %148 = getelementptr inbounds [100 x [100 x i32]], [100 x [100 x i32]]* %9, i64 0, i64 %147
  %149 = load i32, i32* %2, align 4
  %150 = sext i32 %149 to i64
  %151 = getelementptr inbounds [100 x i32], [100 x i32]* %148, i64 0, i64 %150
  %152 = load i32, i32* %151, align 4
  %153 = call i32 (i8*, ...) @printf(i8* getelementptr inbounds ([4 x i8], [4 x i8]* @.str.2, i64 0, i64 0), i32 %152)
  br label %154

154:                                              ; preds = %145
  %155 = load i32, i32* %7, align 4
  %156 = add nsw i32 %155, -1
  store i32 %156, i32* %7, align 4
  br label %132

157:                                              ; preds = %143
  br label %158

158:                                              ; preds = %157
  %159 = load i32, i32* %2, align 4
  %160 = add nsw i32 %159, 1
  store i32 %160, i32* %2, align 4
  br label %36

161:                                              ; preds = %36
  ret i32 0
}

declare dso_local i32 @__isoc99_scanf(i8*, ...) #1

declare dso_local i32 @printf(i8*, ...) #1


!llvm.module.flags = !{!0}
!llvm.ident = !{!1}

!0 = !{i32 1, !"wchar_size", i32 4}
!1 = !{!"clang version 10.0.0-4ubuntu1 "}
